(dp0
S'11001010'
p1
I101
sS'11001011'
p2
I10
sS'101001110'
p3
I118
sS'101001111'
p4
I126
sS'01111110111'
p5
I204
sS'01111110110'
p6
I232
sS'0110110101'
p7
I173
sS'0110110100'
p8
I171
sS'11010111010'
p9
I191
sS'11010111011'
p10
I237
sS'110101001'
p11
I116
sS'1010011011'
p12
I151
sS'1010011010'
p13
I164
sS'111101101111'
p14
I189
sS'111101101110'
p15
I202
sS'1000101'
p16
I57
sS'111011101'
p17
I114
sS'111011100'
p18
I9
sS'1111001'
p19
I78
sS'1111000'
p20
I73
sS'1101110'
p21
I85
sS'1101111'
p22
I87
sS'10110011101'
p23
I177
sS'10110011100'
p24
I179
sS'10110010111'
p25
I238
sS'10110010110'
p26
I236
sS'00011'
p27
I68
sS'1100100'
p28
I37
sS'00001101'
p29
I113
sS'0110110011'
p30
I209
sS'01000000101'
p31
I186
sS'111101100000'
p32
I228
sS'md'
p33
S'L'
p34
sS'01000001010'
p35
I231
sS'11110110110'
p36
I207
sS'11001111'
p37
I106
sS'001100101'
p38
I154
sS'0011111'
p39
I96
sS'0100101'
p40
I26
sS'0100100'
p41
I15
sS'01101100101'
p42
I242
sS'0111101'
p43
I56
sS'0111100'
p44
I92
sS'1000110'
p45
I22
sS'1000111'
p46
I254
sS'1111010'
p47
I80
sS'0101110'
p48
I31
sS'00001000101'
p49
I218
sS'00001000100'
p50
I217
sS'00110011'
p51
I111
sS'1010011000110'
p52
I220
sS'110101110000'
p53
I175
sS'0010010001'
p54
I212
sS'0010011'
p55
I13
sS'01000000011'
p56
I235
sS'01000000010'
p57
I234
sS'0110111'
p58
I29
sS'011111100'
p59
I121
sS'1110010'
p60
I88
sS'11100110100'
p61
I5
sS'10110011110'
p62
I195
sS'1011101'
p63
I90
sS'1011100'
p64
I34
sS'101100111110'
p65
I225
sS'101100111111'
p66
I222
sS'00111010'
p67
I117
sS'00100101'
p68
I110
sS'0100000011'
p69
I208
sS'1010111'
p70
I89
sS'1010110'
p71
I24
sS'0100110'
p72
I23
sS'0100111'
p73
I45
sS'1110011011'
p74
I8
sS'0111110'
p75
I91
sS'0010010000'
p76
I216
sS'0010000'
p77
I16
sS'0010001'
p78
I51
sS'001110110'
p79
I134
sS'1100000001'
p80
I148
sS'10001000111'
p81
I182
sS'10001000110'
p82
I199
sS'101010011'
p83
I129
sS'101010010'
p84
I125
sS'11101111'
p85
I102
sS'11010100010'
p86
I156
sS'0111111010'
p87
I145
sS'0110100'
p88
I44
sS'0110101'
p89
I40
sS'110000000000'
p90
I246
sS'1110000'
p91
I81
sS'1110001'
p92
I79
sS'0011110'
p93
I12
sS'1010101'
p94
I36
sS'0000110000'
p95
I146
sS'100010000'
p96
I131
sS'1011110'
p97
I59
sS'1011111'
p98
I41
sS'010111100'
p99
I130
sS'0000111'
p100
I46
sS'11010111001'
p101
I226
sS'111001101011'
p102
I172
sS'111001101010'
p103
I190
sS'1110011001'
p104
I133
sS'101010000'
p105
I119
sS'101010001'
p106
I128
sS'10001000100'
p107
I139
sS'10001000101'
p108
I169
sS'1100000000010'
p109
I180
sS'1100000000011'
p110
I181
sS'0100011'
p111
I17
sS'0100010'
p112
I30
sS'01000000001'
p113
I240
sS'101100100'
p114
I124
sS'110011101'
p115
I112
sS'1100000011'
p116
I135
sS'1100000010'
p117
I7
sS'1101011010'
p118
I152
sS'1001111'
p119
I49
sS'11110111'
p120
I99
sS'11100110000'
p121
I178
sS'11100111'
p122
I253
sS'1101011011'
p123
I149
sS'1100111001'
p124
I150
sS'11100110001'
p125
I170
sS'0110110000'
p126
I162
sS'1100010'
p127
I61
sS'1100011'
p128
I39
sS'001001001'
p129
I252
sS'0110110001'
p130
I155
sS'0011100'
p131
I55
sS'001100100101'
p132
I248
sS'010100'
p133
I72
sS'0000110010'
p134
I250
sS'010000000001'
p135
I198
sS'010000000000'
p136
I197
sS'111101100101'
p137
I223
sS'111101100100'
p138
I229
sS'111101100001'
p139
I249
sS'0000101'
p140
I52
sS'001100100111'
p141
I183
sS'001100100110'
p142
I201
sS'0100001'
p143
I94
sS'0100000101101'
p144
I196
sS'0100000101100'
p145
I4
sS'110000101'
p146
I115
sS'101100110'
p147
I123
sS'11000010011'
p148
I157
sS'11000010010'
p149
I176
sS'11000000001'
p150
I205
sS'00001100010'
p151
I185
sS'11010101'
p152
I11
sS'01011111'
p153
I107
sS'1101011111'
p154
I160
sS'1100001000101'
p155
I193
sS'1100001000100'
p156
I188
sS'11110110100'
p157
I167
sS'11110110101'
p158
I141
sS'100111010'
p159
I122
sS'100111011'
p160
I127
sS'001100100100'
p161
I244
sS'11110110001'
p162
I233
sS'11010111100'
p163
I210
sS'11010111101'
p164
I211
sS'1001001'
p165
I27
sS'1001000'
p166
I14
sS'00111011101'
p167
I6
sS'01111111'
p168
I108
sS'010110'
p169
I63
sS'110110'
p170
I66
sS'0100000100'
p171
I206
sS'1011001010'
p172
I144
sS'1111111'
p173
I62
sS'1111110'
p174
I77
sS'1101000'
p175
I35
sS'1101001'
p176
I86
sS'1110101'
p177
I76
sS'1110100'
p178
I82
sS'1010001'
p179
I54
sS'1010000'
p180
I38
sS'1000011'
p181
I20
sS'1000010'
p182
I33
sS'11010100011'
p183
I159
sS'1010011000111'
p184
I224
sS'01101100100'
p185
I168
sS'0011001000'
p186
I147
sS'0101010'
p187
I25
sS'0101011'
p188
I18
sS'000101'
p189
I64
sS'000100'
p190
I83
sS'10100110000'
p191
I142
sS'0110010'
p192
I42
sS'0110011'
p193
I19
sS'001110111101'
p194
I219
sS'001110111100'
p195
I241
sS'0000100011'
p196
I184
sS'0110110110'
p197
I163
sS'00101'
p198
I69
sS'1010011000100'
p199
I230
sS'1010011000101'
p200
I200
sS'0011000'
p201
I21
sS'0111001'
p202
I95
sS'11111010'
p203
I100
sS'11111011'
p204
I98
sS'1110110'
p205
I75
sS'00111011111'
p206
I194
sS'110101100'
p207
I120
sS'110000100011'
p208
I247
sS'0100000111'
p209
I158
sS'0100000110'
p210
I165
sS'1111100'
p211
I74
sS'110101110001'
p212
I245
sS'0110110111'
p213
I161
sS'11000001'
p214
I105
sS'1010010'
p215
I28
sS'ex'
p216
V.ppm
p217
sS'0111011'
p218
I93
sS'0111010'
p219
I53
sS'1000000'
p220
I58
sS'1000001'
p221
I43
sS'00001001'
p222
I109
sS'0000100001'
p223
I215
sS'0000100000'
p224
I214
sS'1000100110'
p225
I153
sS'1000100111'
p226
I143
sS'110000100001'
p227
I187
sS'110000100000'
p228
I192
sS'00001100011'
p229
I255
sS'0011010'
p230
I48
sS'0011011'
p231
I50
sS'011000'
p232
I71
sS'010000010111'
p233
I239
sS'1011000'
p234
I32
sS'1100111000'
p235
I138
sS'0000110011'
p236
I166
sS'11000011'
p237
I104
sS'1101010000'
p238
I132
sS'sz'
p239
(I111
I132
tp240
sS'11110110011'
p241
I213
sS'10011100'
p242
I103
sS'1010011001'
p243
I174
sS'101101'
p244
I70
sS'0101111010'
p245
I137
sS'0101111011'
p246
I243
sS'0111000'
p247
I60
sS'100110'
p248
I65
sS'01000000100'
p249
I251
sS'1000100101'
p250
I140
sS'1000100100'
p251
I136
sS'00000'
p252
I67
sS'1001010'
p253
I97
sS'1001011'
p254
I47
sS'1100110'
p255
I84
sS'001110111000'
p256
I227
sS'001110111001'
p257
I221
s.