(dp0
S'0111010100000'
p1
I174
sS'0111010100001'
p2
I214
sS'010000010101100'
p3
I3
sS'010111101011'
p4
I153
sS'01000111110'
p5
I94
sS'010000010100'
p6
I202
sS'0110100111'
p7
I229
sS'01000000'
p8
I97
sS'01000111100'
p9
I226
sS'011011001010'
p10
I198
sS'010011001000'
p11
I197
sS'0111001000011'
p12
I30
sS'01110110001'
p13
I111
sS'011101101'
p14
I68
sS'011011000'
p15
I77
sS'010011011010'
p16
I151
sS'01000001000'
p17
I137
sS'011101010111'
p18
I99
sS'0100110011'
p19
I98
sS'01000001101110'
p20
I11
sS'01000001101111'
p21
I19
sS'0101111000110'
p22
I195
sS'0100000101010'
p23
I12
sS'01100111110'
p24
I247
sS'10'
p25
I255
sS'0110111100010'
p26
I157
sS'0110101111000'
p27
I140
sS'0110101111001'
p28
I16
sS'0110110010110'
p29
I138
sS'0110101111111'
p30
I208
sS'010000010011'
p31
I234
sS'011100001101'
p32
I171
sS'01011110110'
p33
I248
sS'0100011111100'
p34
I165
sS'0111010001001'
p35
I172
sS'01001101000'
p36
I109
sS'0100100'
p37
I125
sS'011011110000'
p38
I239
sS'010001111010'
p39
I181
sS'010001111011'
p40
I33
sS'01111100011010'
p41
I173
sS'01111100011011'
p42
I232
sS'010011011001'
p43
I235
sS'0111011001'
p44
I85
sS'010000010010'
p45
I170
sS'011100100101'
p46
I164
sS'01000001011'
p47
I34
sS'01110010000101'
p48
I175
sS'01110010000100'
p49
I21
sS'0111011000000'
p50
I162
sS'011010010'
p51
I65
sS'011010111010'
p52
I35
sS'0101101000001'
p53
I166
sS'0101101000000'
p54
I43
sS'011111101'
p55
I116
sS'010011010110'
p56
I204
sS'010011010111'
p57
I90
sS'011001010000'
p58
I219
sS'0110011111101'
p59
I201
sS'0110011111100'
p60
I217
sS'0110111101'
p61
I107
sS'0111010100101'
p62
I143
sS'0111010100100'
p63
I180
sS'0111001001000'
p64
I48
sS'0111001001001'
p65
I133
sS'010111111'
p66
I80
sS'010111110'
p67
I67
sS'0100000110110'
p68
I168
sS'01010'
p69
I124
sS'0100101111101'
p70
I27
sS'ex'
p71
V.png
p72
sS'01101010'
p73
I59
sS'01000100'
p74
I112
sS'01000101'
p75
I104
sS'0100111'
p76
I56
sS'011110'
p77
I242
sS'010010111111'
p78
I216
sS'00'
p79
I128
sS'010010110100'
p80
I146
sS'01011110001110'
p81
I8
sS'01011110001111'
p82
I10
sS'011111110'
p83
I64
sS'011111111'
p84
I82
sS'011001011'
p85
I66
sS'0101110000000'
p86
I159
sS'0111010000'
p87
I101
sS'011001101011'
p88
I192
sS'010110101'
p89
I78
sS'011100001100'
p90
I243
sS'011010000'
p91
I60
sS'011010001'
p92
I76
sS'0100101111100'
p93
I206
sS'010011010100'
p94
I37
sS'011010111110'
p95
I203
sS'0111000010'
p96
I96
sS'011010111000'
p97
I228
sS'01101011101100'
p98
I130
sS'01101011101101'
p99
I7
sS'0111010100110'
p100
I221
sS'0111010100111'
p101
I199
sS'010110100001'
p102
I152
sS'0110011110'
p103
I207
sS'010001110'
p104
I74
sS'011111000100111'
p105
I20
sS'011111000100110'
p106
I17
sS'0111010101100'
p107
I44
sS'0111010101101'
p108
I158
sS'0111111000'
p109
I86
sS'0111111001'
p110
I71
sS'01000110'
p111
I81
sS'010000011010'
p112
I147
sS'0110101110111'
p113
I177
sS'011000'
p114
I241
sS'01011010010'
p115
I245
sS'011001111111'
p116
I105
sS'01000001010111'
p117
I187
sS'0101110000011'
p118
I41
sS'010011011000'
p119
I145
sS'011001000'
p120
I84
sS'011001001'
p121
I63
sS'01100110100'
p122
I254
sS'011001010110'
p123
I224
sS'0100110111001'
p124
I46
sS'01110011'
p125
I61
sS'0100110111000'
p126
I176
sS'01011110010'
p127
I240
sS'0111110001111'
p128
I182
sS'01001011011'
p129
I223
sS'0111110001110'
p130
I160
sS'010011000'
p131
I57
sS'0110111100011'
p132
I92
sS'0111110001100'
p133
I233
sS'0111001001101'
p134
I50
sS'0111001001100'
p135
I189
sS'0110100110110'
p136
I93
sS'0110100110111'
p137
I188
sS'0110110011100'
p138
I26
sS'0110110011101'
p139
I144
sS'010000011001'
p140
I179
sS'010000011000'
p141
I100
sS'0100001'
p142
I121
sS'01001011100'
p143
I250
sS'010011011011'
p144
I141
sS'010111101110'
p145
I200
sS'01101100110'
p146
I103
sS'0110101111110'
p147
I191
sS'01011011'
p148
I136
sS'011001010011'
p149
I246
sS'0100101100'
p150
I106
sS'01110001'
p151
I118
sS'011011001111'
p152
I42
sS'0111001000001'
p153
I222
sS'0100000111'
p154
I230
sS'0111001000000'
p155
I155
sS'010010111011'
p156
I205
sS'0111001001110'
p157
I51
sS'0101111010100'
p158
I0
sS'0110010100011'
p159
I28
sS'011101001'
p160
I73
sS'0101111010101'
p161
I142
sS'010111001'
p162
I70
sS'010000010101101'
p163
I6
sS'01101111001'
p164
I91
sS'011100000'
p165
I62
sS'01101100100'
p166
I108
sS'11'
p167
I120
sS'md'
p168
S'L'
p169
sS'01100101000101'
p170
I4
sS'01100101000100'
p171
I183
sS'010111100111'
p172
I102
sS'010111100110'
p173
I237
sS'01001101111'
p174
I249
sS'010011010101'
p175
I231
sS'01110110000011'
p176
I210
sS'011011111'
p177
I79
sS'01101100101111'
p178
I29
sS'0101110000010'
p179
I225
sS'011001100'
p180
I72
sS'0111010001011'
p181
I236
sS'0111010001010'
p182
I184
sS'01110101010110'
p183
I24
sS'01110101010111'
p184
I13
sS'010011010011'
p185
I36
sS'010011010010'
p186
I227
sS'0111110000'
p187
I95
sS'010111010'
p188
I123
sS'010111011'
p189
I87
sS'01001100101'
p190
I39
sS'010111000011'
p191
I212
sS'010111000010'
p192
I47
sS'01101001100'
p193
I88
sS'01011110000'
p194
I53
sS'011101011'
p195
I69
sS'01011010011'
p196
I253
sS'0111010101010'
p197
I139
sS'0111110001000'
p198
I211
sS'010010111010'
p199
I209
sS'011010111001'
p200
I156
sS'01110000111'
p201
I89
sS'0101110001'
p202
I110
sS'011010110'
p203
I114
sS'01100101010'
p204
I31
sS'011011100'
p205
I54
sS'011011101'
p206
I75
sS'011010111101'
p207
I149
sS'010011001001'
p208
I45
sS'011101010001010'
p209
I1
sS'011101010001011'
p210
I9
sS'011111011'
p211
I58
sS'011111010'
p212
I115
sS'0111010001000'
p213
I52
sS'011010011010'
p214
I150
sS'0101101000111'
p215
I196
sS'0101101000110'
p216
I18
sS'011001110'
p217
I126
sS'010011011101'
p218
I40
sS'01111100010010'
p219
I25
sS'01011100000011'
p220
I220
sS'01011100000010'
p221
I131
sS'0100101101011'
p222
I14
sS'0100101101010'
p223
I129
sS'0111010100011'
p224
I218
sS'01110100011'
p225
I251
sS'011001101010'
p226
I154
sS'0100011111101'
p227
I185
sS'01011001'
p228
I127
sS'01011000'
p229
I117
sS'011101100001'
p230
I186
sS'0101111000101'
p231
I194
sS'01001011110'
p232
I178
sS'0101111011110'
p233
I49
sS'0101111011111'
p234
I135
sS'0110011011'
p235
I122
sS'0111110001010'
p236
I161
sS'0111110001011'
p237
I244
sS'011011001011101'
p238
I5
sS'011011001011100'
p239
I2
sS'01110101000100'
p240
I167
sS'sz'
p241
(I1920
I1080
tp242
sS'0110010101110'
p243
I32
sS'0110010101111'
p244
I23
sS'011100101'
p245
I83
sS'01110010001'
p246
I252
sS'01101101'
p247
I55
sS'01001010'
p248
I113
sS'0101111000100'
p249
I213
sS'0110010100100'
p250
I190
sS'0110010100101'
p251
I163
sS'01110110000010'
p252
I22
sS'0101101000100'
p253
I134
sS'0101101000101'
p254
I132
sS'010001111111'
p255
I169
sS'011111001'
p256
I193
sS'01110111'
p257
I119
sS'01110010011110'
p258
I215
sS'011101010100'
p259
I238
sS'010111101001'
p260
I148
sS'010111101000'
p261
I38
sS'01110010011111'
p262
I15
s.