(dp0
S'01110'
p1
I236
sS'sz'
p2
(I100
I100
tp3
sS'0000'
p4
I37
sS'0001'
p5
I18
sS'01101'
p6
I106
sS'01100'
p7
I67
sS'0010'
p8
I217
sS'01011'
p9
I10
sS'01010'
p10
I252
sS'01000'
p11
I247
sS'md'
p12
S'L'
p13
sS'1'
p14
I255
sS'01111'
p15
I187
sS'ex'
p16
V.ppm
p17
sS'0011'
p18
I254
sS'01001'
p19
I148
s.